; Function Attrs: nounwind uwtable
define dso_local void @status_printf(ptr noundef readonly captures(none) %0, ptr noundef %1, ptr noundef %2, ...) local_unnamed_addr #0 {
  %4 = alloca [1 x %struct.__va_list_tag], align 16
  call void @llvm.lifetime.start.p0(i64 24, ptr nonnull %4) #20
  call void @llvm.va_start.p0(ptr nonnull %4)
  call fastcc void @status_vprintf(ptr noundef %0, i32 noundef 1, ptr noundef %1, ptr noundef %2, ptr noundef %4, ptr noundef null)
  call void @llvm.va_end.p0(ptr nonnull %4)
  call void @llvm.lifetime.end.p0(i64 24, ptr nonnull %4) #20
  ret void
}